target datalayout = "e-m:e-p270:32:32-p271:32:32-p272:64:64-i64:64-i128:128-f80:128-n8:16:32:64-S128"
target triple = "x86_64-pc-linux-gnu"

%struct.ASSCodesCallbacks = type { ptr, ptr, ptr, ptr, ptr, ptr, ptr, ptr, ptr, ptr, ptr, ptr }
%struct.AVCodecContext = type { ptr, i32, i32, ptr, i32, i32, ptr, ptr, ptr, i64, i32, i32, ptr, i32, %struct.AVRational, %struct.AVRational, %struct.AVRational, i32, i32, i32, i32, i32, %struct.AVRational, i32, i32, i32, i32, i32, i32, i32, i32, i32, i32, i32, ptr, ptr, i32, float, float, float, float, float, float, float, float, float, i32, i32, i32, i32, i32, i32, i32, i32, i32, i32, i32, i32, ptr, ptr, ptr, i32, i32, i32, i32, i32, i32, i32, i32, i32, i32, %struct.AVChannelLayout, i32, i32, i32, i32, i32, i32, i32, i32, ptr, i32, i32, i32, float, float, i32, i32, i32, i32, i32, ptr, i64, i64, float, float, i32, i32, ptr, ptr, i32, i32, i32, i32, i32, ptr, ptr, ptr, ptr, i32, i32, [8 x i64], i32, i32, i32, i32, i32, i32, i32, ptr, ptr, i32, i32, i32, i32, i32, i32, i32, i32, i32, i32, ptr, ptr, i32, i32, ptr, ptr, ptr, ptr, i32, i32, i64, i32, i32, i64, ptr, i64, ptr, i32, ptr, i32 }
%struct.AVRational = type { i32, i32 }
%struct.AVChannelLayout = type { i32, i32, %union.anon.0, ptr }
%union.anon.0 = type { i64 }
%struct.WebVTTContext = type { ptr, ptr, %struct.AVBPrint, i32, i32, [64 x i8], i32 }
%struct.AVBPrint = type { ptr, i32, i32, i32, [1 x i8], [1000 x i8] }
%struct.AVSubtitle = type { i16, i32, i32, i32, ptr, i64 }
%struct.AVSubtitleRect = type { i32, i32, i32, i32, i32, [4 x ptr], [4 x i32], i32, i32, ptr, ptr }
%struct.ASSDialog = type { i32, i32, i32, i32, ptr, ptr, i32, i32, i32, ptr, ptr }

@.str.2 = private unnamed_addr constant [35 x i8] c"Only SUBTITLE_ASS type supported.\0A\00", align 1
@webvtt_callbacks = internal constant %struct.ASSCodesCallbacks { ptr @webvtt_text_cb, ptr @webvtt_new_line_cb, ptr @webvtt_style_cb, ptr null, ptr null, ptr null, ptr null, ptr null, ptr @webvtt_cancel_overrides_cb, ptr null, ptr null, ptr @webvtt_end_cb }, align 8
@.str.3 = private unnamed_addr constant [33 x i8] c"Buffer too small for ASS event.\0A\00", align 1

; Function Attrs: inlinehint nounwind uwtable
define internal i32 @av_bprint_is_complete(ptr noundef %0) #4 {
  %2 = alloca ptr, align 8
  store ptr %0, ptr %2, align 8, !tbaa !60
  %3 = load ptr, ptr %2, align 8, !tbaa !60
  %4 = getelementptr inbounds nuw %struct.AVBPrint, ptr %3, i32 0, i32 1
  %5 = load i32, ptr %4, align 8, !tbaa !62
  %6 = load ptr, ptr %2, align 8, !tbaa !60
  %7 = getelementptr inbounds nuw %struct.AVBPrint, ptr %6, i32 0, i32 2
  %8 = load i32, ptr %7, align 4, !tbaa !63
  %9 = icmp ult i32 %5, %8
  %10 = zext i1 %9 to i32
  ret i32 %10
}

; Function Attrs: nounwind uwtable
define internal i32 @webvtt_encode_frame(ptr noundef %0, ptr noundef %1, i32 noundef %2, ptr noundef %3) #1 {
  %5 = alloca i32, align 4
  %6 = alloca ptr, align 8
  %7 = alloca ptr, align 8
  %8 = alloca i32, align 4
  %9 = alloca ptr, align 8
  %10 = alloca ptr, align 8
  %11 = alloca ptr, align 8
  %12 = alloca i32, align 4
  %13 = alloca ptr, align 8
  %14 = alloca i32, align 4
  store ptr %0, ptr %6, align 8, !tbaa !4
  store ptr %1, ptr %7, align 8, !tbaa !36
  store i32 %2, ptr %8, align 4, !tbaa !37
  store ptr %3, ptr %9, align 8, !tbaa !38
  call void @llvm.lifetime.start.p0(i64 8, ptr %10) #6
  %15 = load ptr, ptr %6, align 8, !tbaa !4
  %16 = getelementptr inbounds nuw %struct.AVCodecContext, ptr %15, i32 0, i32 6
  %17 = load ptr, ptr %16, align 8, !tbaa !9
  store ptr %17, ptr %10, align 8, !tbaa !29
  call void @llvm.lifetime.start.p0(i64 8, ptr %11) #6
  call void @llvm.lifetime.start.p0(i64 4, ptr %12) #6
  %18 = load ptr, ptr %10, align 8, !tbaa !29
  %19 = getelementptr inbounds nuw %struct.WebVTTContext, ptr %18, i32 0, i32 2
  %20 = load ptr, ptr %7, align 8, !tbaa !36
  %21 = load i32, ptr %8, align 4, !tbaa !37
  call void @av_bprint_init_for_buffer(ptr noundef %19, ptr noundef %20, i32 noundef %21)
  store i32 0, ptr %12, align 4, !tbaa !37
  br label %22

22:                                               ; preds = %72, %4
  %23 = load i32, ptr %12, align 4, !tbaa !37
  %24 = load ptr, ptr %9, align 8, !tbaa !38
  %25 = getelementptr inbounds nuw %struct.AVSubtitle, ptr %24, i32 0, i32 3
  %26 = load i32, ptr %25, align 4, !tbaa !40
  %27 = icmp ult i32 %23, %26
  br i1 %27, label %28, label %75

28:                                               ; preds = %22
  call void @llvm.lifetime.start.p0(i64 8, ptr %13) #6
  %29 = load ptr, ptr %9, align 8, !tbaa !38
  %30 = getelementptr inbounds nuw %struct.AVSubtitle, ptr %29, i32 0, i32 4
  %31 = load ptr, ptr %30, align 8, !tbaa !44
  %32 = load i32, ptr %12, align 4, !tbaa !37
  %33 = sext i32 %32 to i64
  %34 = getelementptr inbounds ptr, ptr %31, i64 %33
  %35 = load ptr, ptr %34, align 8, !tbaa !45
  %36 = getelementptr inbounds nuw %struct.AVSubtitleRect, ptr %35, i32 0, i32 10
  %37 = load ptr, ptr %36, align 8, !tbaa !47
  store ptr %37, ptr %13, align 8, !tbaa !36
  %38 = load ptr, ptr %9, align 8, !tbaa !38
  %39 = getelementptr inbounds nuw %struct.AVSubtitle, ptr %38, i32 0, i32 4
  %40 = load ptr, ptr %39, align 8, !tbaa !44
  %41 = load i32, ptr %12, align 4, !tbaa !37
  %42 = sext i32 %41 to i64
  %43 = getelementptr inbounds ptr, ptr %40, i64 %42
  %44 = load ptr, ptr %43, align 8, !tbaa !45
  %45 = getelementptr inbounds nuw %struct.AVSubtitleRect, ptr %44, i32 0, i32 8
  %46 = load i32, ptr %45, align 4, !tbaa !49
  %47 = icmp ne i32 %46, 3
  br i1 %47, label %48, label %50

48:                                               ; preds = %28
  %49 = load ptr, ptr %6, align 8, !tbaa !4
  call void (ptr, i32, ptr, ...) @av_log(ptr noundef %49, i32 noundef 16, ptr noundef @.str.2)
  store i32 -22, ptr %5, align 4
  store i32 1, ptr %14, align 4
  br label %69

50:                                               ; preds = %28
  %51 = load ptr, ptr %10, align 8, !tbaa !29
  %52 = getelementptr inbounds nuw %struct.WebVTTContext, ptr %51, i32 0, i32 1
  %53 = load ptr, ptr %52, align 8, !tbaa !35
  %54 = load ptr, ptr %13, align 8, !tbaa !36
  %55 = call ptr @ff_ass_split_dialog(ptr noundef %53, ptr noundef %54)
  store ptr %55, ptr %11, align 8, !tbaa !29
  %56 = load ptr, ptr %11, align 8, !tbaa !29
  %57 = icmp ne ptr %56, null
  br i1 %57, label %59, label %58

58:                                               ; preds = %50
  store i32 -12, ptr %5, align 4
  store i32 1, ptr %14, align 4
  br label %69

59:                                               ; preds = %50
  %60 = load ptr, ptr %10, align 8, !tbaa !29
  %61 = load ptr, ptr %11, align 8, !tbaa !29
  %62 = getelementptr inbounds nuw %struct.ASSDialog, ptr %61, i32 0, i32 4
  %63 = load ptr, ptr %62, align 8, !tbaa !50
  call void @webvtt_style_apply(ptr noundef %60, ptr noundef %63)
  %64 = load ptr, ptr %10, align 8, !tbaa !29
  %65 = load ptr, ptr %11, align 8, !tbaa !29
  %66 = getelementptr inbounds nuw %struct.ASSDialog, ptr %65, i32 0, i32 10
  %67 = load ptr, ptr %66, align 8, !tbaa !52
  %68 = call i32 @ff_ass_split_override_codes(ptr noundef @webvtt_callbacks, ptr noundef %64, ptr noundef %67)
  call void @ff_ass_free_dialog(ptr noundef %11)
  store i32 0, ptr %14, align 4
  br label %69

69:                                               ; preds = %59, %58, %48
  call void @llvm.lifetime.end.p0(i64 8, ptr %13) #6
  %70 = load i32, ptr %14, align 4
  switch i32 %70, label %94 [
    i32 0, label %71
  ]

71:                                               ; preds = %69
  br label %72

72:                                               ; preds = %71
  %73 = load i32, ptr %12, align 4, !tbaa !37
  %74 = add nsw i32 %73, 1
  store i32 %74, ptr %12, align 4, !tbaa !37
  br label %22, !llvm.loop !53

75:                                               ; preds = %22
  %76 = load ptr, ptr %10, align 8, !tbaa !29
  %77 = getelementptr inbounds nuw %struct.WebVTTContext, ptr %76, i32 0, i32 2
  %78 = getelementptr inbounds nuw %struct.AVBPrint, ptr %77, i32 0, i32 1
  %79 = load i32, ptr %78, align 8, !tbaa !55
  %80 = icmp ne i32 %79, 0
  br i1 %80, label %82, label %81

81:                                               ; preds = %75
  store i32 0, ptr %5, align 4
  store i32 1, ptr %14, align 4
  br label %94

82:                                               ; preds = %75
  %83 = load ptr, ptr %10, align 8, !tbaa !29
  %84 = getelementptr inbounds nuw %struct.WebVTTContext, ptr %83, i32 0, i32 2
  %85 = call i32 @av_bprint_is_complete(ptr noundef %84)
  %86 = icmp ne i32 %85, 0
  br i1 %86, label %89, label %87

87:                                               ; preds = %82
  %88 = load ptr, ptr %6, align 8, !tbaa !4
  call void (ptr, i32, ptr, ...) @av_log(ptr noundef %88, i32 noundef 16, ptr noundef @.str.3)
  store i32 -1397118274, ptr %5, align 4
  store i32 1, ptr %14, align 4
  br label %94

89:                                               ; preds = %82
  %90 = load ptr, ptr %10, align 8, !tbaa !29
  %91 = getelementptr inbounds nuw %struct.WebVTTContext, ptr %90, i32 0, i32 2
  %92 = getelementptr inbounds nuw %struct.AVBPrint, ptr %91, i32 0, i32 1
  %93 = load i32, ptr %92, align 8, !tbaa !55
  store i32 %93, ptr %5, align 4
  store i32 1, ptr %14, align 4
  br label %94

94:                                               ; preds = %89, %87, %81, %69
  call void @llvm.lifetime.end.p0(i64 4, ptr %12) #6
  call void @llvm.lifetime.end.p0(i64 8, ptr %11) #6
  call void @llvm.lifetime.end.p0(i64 8, ptr %10) #6
  %95 = load i32, ptr %5, align 4
  ret i32 %95
}