; Function Attrs: nounwind uwtable
define internal i32 @webvtt_encode_frame(ptr noundef %0, ptr noundef %1, i32 noundef %2, ptr noundef readonly captures(none) %3) #1 {
  %5 = alloca ptr, align 8
  %6 = getelementptr inbounds nuw i8, ptr %0, i64 32
  %7 = load ptr, ptr %6, align 8, !tbaa !4
  call void @llvm.lifetime.start.p0(i64 8, ptr nonnull %5) #6
  %8 = getelementptr inbounds nuw i8, ptr %7, i64 16
  tail call void @av_bprint_init_for_buffer(ptr noundef nonnull %8, ptr noundef %1, i32 noundef %2) #6
  %9 = getelementptr inbounds nuw i8, ptr %3, i64 12
  %10 = load i32, ptr %9, align 4, !tbaa !34
  %.not32 = icmp eq i32 %10, 0
  br i1 %.not32, label %._crit_edge, label %.lr.ph

.lr.ph:                                           ; preds = %4
  %11 = getelementptr inbounds nuw i8, ptr %3, i64 16
  %12 = getelementptr inbounds nuw i8, ptr %7, i64 8
  br label %13

13:                                               ; preds = %.lr.ph, %24
  %indvars.iv = phi i64 [ 0, %.lr.ph ], [ %indvars.iv.next, %24 ]
  %14 = load ptr, ptr %11, align 8, !tbaa !38
  %15 = getelementptr inbounds nuw ptr, ptr %14, i64 %indvars.iv
  %16 = load ptr, ptr %15, align 8, !tbaa !39
  %17 = getelementptr inbounds nuw i8, ptr %16, i64 76
  %18 = load i32, ptr %17, align 4, !tbaa !41
  %.not25 = icmp eq i32 %18, 3
  br i1 %.not25, label %19, label %.thread.sink.split

19:                                               ; preds = %13
  %20 = getelementptr inbounds nuw i8, ptr %16, i64 88
  %21 = load ptr, ptr %20, align 8, !tbaa !43
  %22 = load ptr, ptr %12, align 8, !tbaa !33
  %23 = call ptr @ff_ass_split_dialog(ptr noundef %22, ptr noundef %21) #6
  store ptr %23, ptr %5, align 8, !tbaa !44
  %.not26 = icmp eq ptr %23, null
  br i1 %.not26, label %.thread, label %24

24:                                               ; preds = %19
  %25 = getelementptr inbounds nuw i8, ptr %23, i64 16
  %26 = load ptr, ptr %25, align 8, !tbaa !45
  call fastcc void @webvtt_style_apply(ptr noundef nonnull %7, ptr noundef %26)
  %27 = load ptr, ptr %5, align 8, !tbaa !44
  %28 = getelementptr inbounds nuw i8, ptr %27, i64 56
  %29 = load ptr, ptr %28, align 8, !tbaa !47
  %30 = call i32 @ff_ass_split_override_codes(ptr noundef nonnull @webvtt_callbacks, ptr noundef nonnull %7, ptr noundef %29) #6
  call void @ff_ass_free_dialog(ptr noundef nonnull %5) #6
  %indvars.iv.next = add nuw nsw i64 %indvars.iv, 1
  %31 = load i32, ptr %9, align 4, !tbaa !34
  %32 = zext i32 %31 to i64
  %33 = icmp samesign ult i64 %indvars.iv.next, %32
  br i1 %33, label %13, label %._crit_edge, !llvm.loop !48

._crit_edge:                                      ; preds = %24, %4
  %34 = getelementptr i8, ptr %7, i64 24
  %35 = load i32, ptr %34, align 8, !tbaa !50
  %.not = icmp eq i32 %35, 0
  br i1 %.not, label %.thread, label %36

36:                                               ; preds = %._crit_edge
  %37 = getelementptr i8, ptr %7, i64 28
  %.val27 = load i32, ptr %37, align 4, !tbaa !51
  %.not30 = icmp ult i32 %35, %.val27
  br i1 %.not30, label %.thread, label %.thread.sink.split

.thread.sink.split:                               ; preds = %13, %36
  %.str.2.sink = phi ptr [ @.str.3, %36 ], [ @.str.2, %13 ]
  %.2.ph = phi i32 [ -1397118274, %36 ], [ -22, %13 ]
  call void (ptr, i32, ptr, ...) @av_log(ptr noundef %0, i32 noundef 16, ptr noundef nonnull %.str.2.sink) #6
  br label %.thread

.thread:                                          ; preds = %19, %.thread.sink.split, %36, %._crit_edge
  %.2 = phi i32 [ 0, %._crit_edge ], [ %35, %36 ], [ %.2.ph, %.thread.sink.split ], [ -12, %19 ]
  call void @llvm.lifetime.end.p0(i64 8, ptr nonnull %5) #6
  ret i32 %.2
}